; Function Attrs: nounwind uwtable
define hidden noundef zeroext i1 @je_tcaches_create(ptr noundef %0, ptr noundef %1, ptr noundef writeonly captures(none) %2) local_unnamed_addr #0 {
tsdn_witness_tsdp_get.exit:
  %3 = tail call i32 @pthread_mutex_trylock(ptr noundef nonnull getelementptr inbounds nuw (i8, ptr @tcaches_mtx, i64 64)) #14
  %.not.i = icmp eq i32 %3, 0
  br i1 %.not.i, label %5, label %4

4:                                                ; preds = %tsdn_witness_tsdp_get.exit
  tail call void @je_malloc_mutex_lock_slow(ptr noundef nonnull @tcaches_mtx) #14
  store atomic i8 1, ptr getelementptr inbounds nuw (i8, ptr @tcaches_mtx, i64 104) monotonic, align 8
  br label %5

5:                                                ; preds = %4, %tsdn_witness_tsdp_get.exit
  %6 = load i64, ptr getelementptr inbounds nuw (i8, ptr @tcaches_mtx, i64 56), align 8, !tbaa !57
  %7 = add i64 %6, 1
  store i64 %7, ptr getelementptr inbounds nuw (i8, ptr @tcaches_mtx, i64 56), align 8, !tbaa !57
  %8 = load ptr, ptr getelementptr inbounds nuw (i8, ptr @tcaches_mtx, i64 48), align 8, !tbaa !62
  %.not.i.i = icmp eq ptr %8, %0
  br i1 %.not.i.i, label %malloc_mutex_lock.exit, label %9

9:                                                ; preds = %5
  store ptr %0, ptr getelementptr inbounds nuw (i8, ptr @tcaches_mtx, i64 48), align 8, !tbaa !62
  %10 = load i64, ptr getelementptr inbounds nuw (i8, ptr @tcaches_mtx, i64 40), align 8, !tbaa !63
  %11 = add i64 %10, 1
  store i64 %11, ptr getelementptr inbounds nuw (i8, ptr @tcaches_mtx, i64 40), align 8, !tbaa !63
  br label %malloc_mutex_lock.exit

malloc_mutex_lock.exit:                           ; preds = %5, %9
  %12 = load ptr, ptr @je_tcaches, align 8, !tbaa !178
  %13 = icmp eq ptr %12, null
  br i1 %13, label %14, label %tcaches_create_prep.exit

14:                                               ; preds = %malloc_mutex_lock.exit
  %15 = tail call ptr @je_base_alloc(ptr noundef %0, ptr noundef %1, i64 noundef 32752, i64 noundef 64) #14
  store ptr %15, ptr @je_tcaches, align 8, !tbaa !178
  %16 = icmp eq ptr %15, null
  br i1 %16, label %tcaches_create_prep.exit.thread, label %tcaches_create_prep.exit

tcaches_create_prep.exit:                         ; preds = %malloc_mutex_lock.exit, %14
  %17 = load ptr, ptr @tcaches_avail, align 8, !tbaa !178
  %18 = icmp eq ptr %17, null
  %19 = load i32, ptr @tcaches_past, align 4
  %20 = icmp ugt i32 %19, 4093
  %or.cond.i = select i1 %18, i1 %20, i1 false
  br i1 %or.cond.i, label %tcaches_create_prep.exit.thread, label %21

21:                                               ; preds = %tcaches_create_prep.exit
  %22 = tail call ptr @je_tcache_create_explicit(ptr noundef %0)
  %23 = icmp eq ptr %22, null
  br i1 %23, label %tcaches_create_prep.exit.thread, label %24

24:                                               ; preds = %21
  %25 = load ptr, ptr @tcaches_avail, align 8, !tbaa !178
  %.not = icmp eq ptr %25, null
  br i1 %.not, label %34, label %26

26:                                               ; preds = %24
  %27 = load ptr, ptr %25, align 8, !tbaa !40
  store ptr %27, ptr @tcaches_avail, align 8, !tbaa !178
  store ptr %22, ptr %25, align 8, !tbaa !40
  %28 = load ptr, ptr @je_tcaches, align 8, !tbaa !178
  %29 = ptrtoint ptr %25 to i64
  %30 = ptrtoint ptr %28 to i64
  %31 = sub i64 %29, %30
  %32 = lshr exact i64 %31, 3
  %33 = trunc i64 %32 to i32
  store i32 %33, ptr %2, align 4, !tbaa !46
  br label %tcaches_create_prep.exit.thread

34:                                               ; preds = %24
  %35 = load ptr, ptr @je_tcaches, align 8, !tbaa !178
  %36 = load i32, ptr @tcaches_past, align 4, !tbaa !46
  %37 = zext i32 %36 to i64
  %38 = getelementptr inbounds nuw %struct.tcaches_s, ptr %35, i64 %37
  store ptr %22, ptr %38, align 8, !tbaa !40
  store i32 %36, ptr %2, align 4, !tbaa !46
  %39 = add i32 %36, 1
  store i32 %39, ptr @tcaches_past, align 4, !tbaa !46
  br label %tcaches_create_prep.exit.thread

tcaches_create_prep.exit.thread:                  ; preds = %14, %26, %34, %21, %tcaches_create_prep.exit
  %.0 = phi i1 [ true, %tcaches_create_prep.exit ], [ true, %21 ], [ false, %34 ], [ false, %26 ], [ true, %14 ]
  store atomic i8 0, ptr getelementptr inbounds nuw (i8, ptr @tcaches_mtx, i64 104) monotonic, align 8
  %40 = tail call i32 @pthread_mutex_unlock(ptr noundef nonnull getelementptr inbounds nuw (i8, ptr @tcaches_mtx, i64 64)) #14
  ret i1 %.0
}